; Function Attrs: mustprogress uwtable
define noundef zeroext i1 @_ZNK3net16HpackInputStream8PeekBitsEPmPj(ptr noundef nonnull readonly align 8 captures(none) dereferenceable(33) %0, ptr noundef captures(none) %1, ptr noundef captures(none) %2) local_unnamed_addr #3 align 2 personality ptr @__gxx_personality_v0 {
  %4 = alloca i32, align 4
  %5 = alloca i32, align 4
  %6 = alloca %"class.logging::LogMessage", align 8
  %7 = getelementptr inbounds nuw i8, ptr %0, i64 16
  %8 = load i64, ptr %7, align 8, !tbaa !16
  %9 = load i64, ptr %1, align 8, !tbaa !8
  %10 = add i64 %9, %8
  %11 = lshr i64 %10, 3
  %12 = icmp ult i64 %9, 32
  %13 = getelementptr inbounds nuw i8, ptr %0, i64 8
  %14 = load i64, ptr %13, align 8
  %.not = icmp ult i64 %11, %14
  %or.cond = select i1 %12, i1 %.not, i1 false
  br i1 %or.cond, label %15, label %38

15:                                               ; preds = %3
  %16 = and i64 %10, 7
  %17 = sub nuw nsw i64 32, %9
  %18 = sub nuw nsw i64 8, %16
  %.sroa.speculated = tail call i64 @llvm.umin.i64(i64 %18, i64 %17)
  %19 = load ptr, ptr %0, align 8, !tbaa !17
  %20 = getelementptr inbounds nuw i8, ptr %19, i64 %11
  %21 = load i8, ptr %20, align 1, !tbaa !18
  %22 = sext i8 %21 to i32
  %23 = trunc nuw nsw i64 %16 to i32
  %24 = or disjoint i32 %23, 24
  %25 = shl i32 %22, %24
  %26 = trunc nuw i64 %9 to i32
  %27 = lshr i32 %25, %26
  call void @llvm.lifetime.start.p0(i64 4, ptr nonnull %4) #18
  %28 = load i32, ptr %2, align 4, !tbaa !19
  %29 = and i32 %27, %28
  store i32 %29, ptr %4, align 4, !tbaa !19
  call void @llvm.lifetime.start.p0(i64 4, ptr nonnull %5) #18
  store i32 0, ptr %5, align 4, !tbaa !19
  %30 = icmp eq i32 %29, 0
  br i1 %30, label %_ZN7logging11CheckEQImplIjjEEPNSt7__cxx1112basic_stringIcSt11char_traitsIcESaIcEEERKT_RKT0_PKc.exit.thread, label %_ZN7logging11CheckEQImplIjjEEPNSt7__cxx1112basic_stringIcSt11char_traitsIcESaIcEEERKT_RKT0_PKc.exit

_ZN7logging11CheckEQImplIjjEEPNSt7__cxx1112basic_stringIcSt11char_traitsIcESaIcEEERKT_RKT0_PKc.exit.thread: ; preds = %15
  call void @llvm.lifetime.end.p0(i64 4, ptr nonnull %5) #18
  call void @llvm.lifetime.end.p0(i64 4, ptr nonnull %4) #18
  br label %33

_ZN7logging11CheckEQImplIjjEEPNSt7__cxx1112basic_stringIcSt11char_traitsIcESaIcEEERKT_RKT0_PKc.exit: ; preds = %15
  %31 = call noundef ptr @_ZN7logging17MakeCheckOpStringIjjEEPNSt7__cxx1112basic_stringIcSt11char_traitsIcESaIcEEERKT_RKT0_PKc(ptr noundef nonnull align 4 dereferenceable(4) %4, ptr noundef nonnull align 4 dereferenceable(4) %5, ptr noundef nonnull @.str.1)
  call void @llvm.lifetime.end.p0(i64 4, ptr nonnull %5) #18
  call void @llvm.lifetime.end.p0(i64 4, ptr nonnull %4) #18
  %.not.i = icmp eq ptr %31, null
  br i1 %.not.i, label %33, label %32

32:                                               ; preds = %_ZN7logging11CheckEQImplIjjEEPNSt7__cxx1112basic_stringIcSt11char_traitsIcESaIcEEERKT_RKT0_PKc.exit
  call void @llvm.lifetime.start.p0(i64 408, ptr nonnull %6) #18
  call void @_ZN7logging10LogMessageC1EPKciPNSt7__cxx1112basic_stringIcSt11char_traitsIcESaIcEEE(ptr noundef nonnull align 8 dereferenceable(404) %6, ptr noundef nonnull @.str, i32 noundef 181, ptr noundef nonnull %31)
  call void @_ZN7logging10LogMessageD1Ev(ptr noundef nonnull align 8 dereferenceable(404) %6) #18
  call void @llvm.lifetime.end.p0(i64 408, ptr nonnull %6) #18
  br label %33

33:                                               ; preds = %_ZN7logging11CheckEQImplIjjEEPNSt7__cxx1112basic_stringIcSt11char_traitsIcESaIcEEERKT_RKT0_PKc.exit.thread, %_ZN7logging11CheckEQImplIjjEEPNSt7__cxx1112basic_stringIcSt11char_traitsIcESaIcEEERKT_RKT0_PKc.exit, %32
  %34 = load i32, ptr %2, align 4, !tbaa !19
  %35 = or i32 %34, %27
  store i32 %35, ptr %2, align 4, !tbaa !19
  %36 = load i64, ptr %1, align 8, !tbaa !8
  %37 = add i64 %36, %.sroa.speculated
  store i64 %37, ptr %1, align 8, !tbaa !8
  br label %38

38:                                               ; preds = %3, %33
  ret i1 %or.cond
}